Certificate:
    Data:
        Version: 3 (0x2)
        Serial Number: 268435670 (0x100000d6)
        Signature Algorithm: sha256WithRSAEncryption
        Issuer: C=DE, ST=Hessen, O=privacyidea, CN=CA001
        Validity
            Not Before: Oct 19 15:20:55 2022 GMT
            Not After : Oct 19 15:20:55 2023 GMT
        Subject: CN=selfservice,CN=user,O=realm1/emailAddress=meine
        Subject Public Key Info:
            Public Key Algorithm: rsaEncryption
                RSA Public-Key: (2048 bit)
                Modulus:
                    00:cf:3c:d4:33:0e:12:c4:e6:da:cd:b6:56:a1:1c:
                    26:bb:26:1c:8a:4a:73:a8:58:8a:b6:1e:b3:8b:99:
                    d2:1d:07:c2:92:89:79:c0:69:d8:c8:df:28:61:98:
                    1e:b3:fe:ae:2b:bd:78:a9:f7:6e:47:dc:a3:a0:16:
                    8c:85:02:c1:4e:92:fd:72:6e:f0:c8:03:29:9b:b8:
                    00:6e:c0:83:95:c8:34:20:36:9c:b3:e5:e4:e6:76:
                    73:a3:1a:ad:40:96:e0:53:54:00:ec:76:79:9a:c6:
                    0d:7e:b6:bd:29:ec:83:f3:cb:89:a4:cb:6c:00:ba:
                    0c:c5:78:0f:ff:69:b8:94:f4:04:70:43:3f:d8:9e:
                    d7:a7:fb:5d:ce:75:8e:da:e7:c4:07:b1:9d:de:6f:
                    88:4b:b6:4d:9a:cf:f9:bc:fa:9f:cd:32:6d:f6:3a:
                    0b:0d:23:42:78:ec:97:42:bf:0e:4d:60:56:e1:d3:
                    02:f2:19:cb:84:57:90:e5:70:a1:a2:83:35:86:e2:
                    da:86:9f:f9:8a:c4:79:b3:52:28:da:cb:bb:34:ca:
                    d3:da:91:4a:cf:8d:76:a2:b2:6b:9b:f9:96:fd:09:
                    2a:da:11:23:4d:f0:cb:d6:b2:b1:0e:12:6c:9a:19:
                    65:98:87:ca:e4:ee:24:ce:44:ac:90:8f:9d:1b:c5:
                    2a:9d
                Exponent: 65537 (0x10001)
        X509v3 extensions:
            X509v3 Key Usage: 
                Digital Signature, Key Encipherment
            X509v3 Basic Constraints: 
                CA:FALSE
            Netscape Cert Type: 
                SSL Server
            Netscape Comment: 
                OpenSSL Generated Server Certificate
            X509v3 Subject Key Identifier: 
                4D:07:90:AD:FF:1D:0D:E7:1A:DD:D6:2E:FA:BA:34:CB:AA:1F:24:C6
            X509v3 Authority Key Identifier: 
                keyid:F4:A7:C0:CC:91:46:AF:64:F3:91:F2:27:F8:C8:B2:6F:8A:87:32:73
                DirName:/C=DE/ST=Hessen/O=privacyidea/CN=CA001
                serial:FB:C8:EB:AC:83:CD:12:07

            X509v3 Extended Key Usage: 
                TLS Web Server Authentication
    Signature Algorithm: sha256WithRSAEncryption
         29:75:b2:40:12:94:33:49:b6:70:87:24:06:83:30:5d:28:15:
         cb:17:a8:3d:8f:cf:52:ab:d7:4c:7d:35:f2:5a:68:71:c1:2c:
         66:b7:28:1d:a4:fd:f7:95:a0:08:39:6e:00:77:bf:35:3b:51:
         7e:67:63:a6:64:b0:1c:1a:33:29:dd:e7:7e:3f:64:2a:6a:e8:
         94:ec:db:c4:9d:12:0a:23:f8:51:28:37:25:86:5b:c4:d2:15:
         fe:4c:ed:6b:4f:a7:d1:cc:18:94:7d:e8:1d:7e:c9:6a:85:cd:
         01:cd:de:8a:13:ab:fd:68:9b:be:c2:d6:17:59:21:6e:e6:59:
         f3:6a:b0:5e:1f:c8:c9:63:b1:08:bc:61:73:9c:ac:eb:d7:ae:
         1e:77:55:1c:67:60:4f:3a:b2:29:5c:7a:3f:31:18:d1:66:ec:
         1a:15:9d:e7:fc:e2:bb:17:97:78:3f:84:f3:97:50:14:cf:07:
         71:51:ca:dc:fe:9b:8f:f5:f5:82:1f:86:75:c7:b0:a3:d8:01:
         6d:04:bb:12:a1:82:a4:85:4a:37:6d:ec:83:d0:95:fd:24:f5:
         3f:63:fe:83:71:db:05:77:9c:04:73:9a:02:e6:f9:6a:4b:d9:
         83:66:77:c7:0c:12:a7:0d:0b:28:a2:ae:3d:b0:3d:f7:c1:38:
         8d:ff:e8:49
-----BEGIN CERTIFICATE-----
MIIEDzCCAvegAwIBAgIEEAAA1jANBgkqhkiG9w0BAQsFADBEMQswCQYDVQQGEwJE
RTEPMA0GA1UECAwGSGVzc2VuMRQwEgYDVQQKDAtwcml2YWN5aWRlYTEOMAwGA1UE
AwwFQ0EwMDEwHhcNMjIxMDE5MTUyMDU1WhcNMjMxMDE5MTUyMDU1WjA9MSUwIwYD
VQQDDBxzZWxmc2VydmljZSxDTj11c2VyLE89cmVhbG0xMRQwEgYJKoZIhvcNAQkB
FgVtZWluZTCCASIwDQYJKoZIhvcNAQEBBQADggEPADCCAQoCggEBAM881DMOEsTm
2s22VqEcJrsmHIpKc6hYirYes4uZ0h0HwpKJecBp2MjfKGGYHrP+riu9eKn3bkfc
o6AWjIUCwU6S/XJu8MgDKZu4AG7Ag5XINCA2nLPl5OZ2c6MarUCW4FNUAOx2eZrG
DX62vSnsg/PLiaTLbAC6DMV4D/9puJT0BHBDP9ie16f7Xc51jtrnxAexnd5viEu2
TZrP+bz6n80ybfY6Cw0jQnjsl0K/Dk1gVuHTAvIZy4RXkOVwoaKDNYbi2oaf+YrE
ebNSKNrLuzTK09qRSs+NdqKya5v5lv0JKtoRI03wy9aysQ4SbJoZZZiHyuTuJM5E
rJCPnRvFKp0CAwEAAaOCAQ4wggEKMAsGA1UdDwQEAwIFoDAJBgNVHRMEAjAAMBEG
CWCGSAGG+EIBAQQEAwIGQDAzBglghkgBhvhCAQ0EJhYkT3BlblNTTCBHZW5lcmF0
ZWQgU2VydmVyIENlcnRpZmljYXRlMB0GA1UdDgQWBBRNB5Ct/x0N5xrd1i76ujTL
qh8kxjB0BgNVHSMEbTBrgBT0p8DMkUavZPOR8if4yLJviocyc6FIpEYwRDELMAkG
A1UEBhMCREUxDzANBgNVBAgMBkhlc3NlbjEUMBIGA1UECgwLcHJpdmFjeWlkZWEx
DjAMBgNVBAMMBUNBMDAxggkA+8jrrIPNEgcwEwYDVR0lBAwwCgYIKwYBBQUHAwEw
DQYJKoZIhvcNAQELBQADggEBACl1skASlDNJtnCHJAaDMF0oFcsXqD2Pz1Kr10x9
NfJaaHHBLGa3KB2k/feVoAg5bgB3vzU7UX5nY6ZksBwaMynd534/ZCpq6JTs28Sd
Egoj+FEoNyWGW8TSFf5M7WtPp9HMGJR96B1+yWqFzQHN3ooTq/1om77C1hdZIW7m
WfNqsF4fyMljsQi8YXOcrOvXrh53VRxnYE86silcej8xGNFm7BoVnef84rsXl3g/
hPOXUBTPB3FRytz+m4/19YIfhnXHsKPYAW0EuxKhgqSFSjdt7IPQlf0k9T9j/oNx
2wV3nARzmgLm+WpL2YNmd8cMEqcNCyiirj2wPffBOI3/6Ek=
-----END CERTIFICATE-----
