Certificate:
    Data:
        Version: 3 (0x2)
        Serial Number: 268435668 (0x100000d4)
        Signature Algorithm: sha256WithRSAEncryption
        Issuer: C=DE, ST=Hessen, O=privacyidea, CN=CA001
        Validity
            Not Before: Oct 19 15:19:57 2022 GMT
            Not After : Oct 19 15:19:57 2023 GMT
        Subject: CN=cn=cornelius
        Subject Public Key Info:
            Public Key Algorithm: rsaEncryption
                RSA Public-Key: (2048 bit)
                Modulus:
                    00:ce:a4:39:30:25:73:e4:9d:e6:37:3b:85:59:83:
                    ef:a3:6e:f9:83:b9:f7:48:b0:0b:d5:e8:05:40:61:
                    cd:c5:5a:bc:11:2f:5b:4e:d0:4f:b8:d0:e8:7f:05:
                    ab:ad:24:0b:90:d4:3f:60:ec:15:b6:4e:be:8e:d9:
                    26:ab:f2:2f:7f:35:c2:a6:a1:bc:52:3a:d9:88:fb:
                    b3:fa:71:20:b9:51:0e:f8:af:0d:16:be:bd:5d:b9:
                    ab:30:d5:ac:6b:3c:bc:ee:28:4a:4f:6f:d4:09:15:
                    f7:98:af:77:db:36:15:2e:1e:ee:0f:d0:d9:60:ad:
                    db:b9:c4:3f:c6:25:32:f9:e3:e9:50:b8:ec:84:a0:
                    c4:d2:9c:fd:ce:25:80:85:7e:3a:ad:4c:a7:40:1b:
                    0a:58:18:9f:c2:5e:36:e1:d1:44:e9:46:b6:dc:b4:
                    28:a2:ec:ed:02:f7:25:79:e1:86:8e:69:67:52:ee:
                    82:21:b7:84:2d:cc:e7:a8:39:57:7d:a3:1e:e9:50:
                    63:77:29:ab:e4:a5:ff:dc:ee:4c:4b:5e:08:2b:62:
                    08:2d:75:b8:26:6c:93:eb:f5:45:ea:cd:83:58:53:
                    15:46:e6:6b:43:c1:2f:d9:88:4b:3d:d5:fd:0c:ff:
                    51:52:ed:54:fb:27:2d:59:ef:4c:50:ce:71:cd:eb:
                    5a:99
                Exponent: 65537 (0x10001)
        X509v3 extensions:
            X509v3 Key Usage: 
                Digital Signature, Key Encipherment
            X509v3 Basic Constraints: 
                CA:FALSE
            Netscape Cert Type: 
                SSL Server
            Netscape Comment: 
                OpenSSL Generated Server Certificate
            X509v3 Subject Key Identifier: 
                0E:D5:BA:4E:7D:92:57:15:FD:61:4E:34:5B:E9:62:D0:20:1C:7D:08
            X509v3 Authority Key Identifier: 
                keyid:F4:A7:C0:CC:91:46:AF:64:F3:91:F2:27:F8:C8:B2:6F:8A:87:32:73
                DirName:/C=DE/ST=Hessen/O=privacyidea/CN=CA001
                serial:FB:C8:EB:AC:83:CD:12:07

            X509v3 Extended Key Usage: 
                TLS Web Server Authentication
    Signature Algorithm: sha256WithRSAEncryption
         7a:7a:fc:f1:f0:ba:ac:c7:87:b7:b7:aa:71:e6:57:07:e9:30:
         df:f1:8b:19:12:34:91:fc:11:11:b9:b5:82:9f:40:89:af:6a:
         f8:6a:f9:99:d3:76:01:c0:66:9c:79:fc:8c:f2:d4:82:52:ef:
         e2:2e:85:17:2b:7b:6e:77:9a:0a:ec:f5:91:0d:0c:00:b8:18:
         ac:16:fc:4e:9c:18:26:8d:31:5b:68:8e:5f:98:6b:6e:9b:45:
         19:12:0c:16:7c:5d:86:5d:24:bc:11:01:97:af:91:05:ce:de:
         ef:a7:1c:42:c8:09:49:70:c6:38:78:57:bc:96:01:ba:1c:1a:
         73:d9:b1:17:30:63:74:9b:cc:f3:d0:fe:a6:3e:d7:d0:f8:90:
         36:df:71:96:ff:e7:83:07:4c:89:6e:4c:aa:cb:41:f4:9e:d6:
         84:36:1c:dd:53:9d:05:7d:7d:90:40:20:93:b0:3e:f7:64:b9:
         96:cb:b6:84:93:87:87:e8:5a:64:4c:e5:4e:40:71:17:ef:98:
         55:33:42:f5:f4:eb:25:e2:47:fb:2f:e6:5e:aa:a4:b1:ae:a0:
         3d:39:5a:e5:5b:69:ca:03:d7:dd:b4:b4:16:bf:c0:0e:1b:7f:
         43:e7:ea:0e:b2:45:66:f6:99:f5:5d:84:c4:3f:0d:87:70:ec:
         fb:46:7d:81
-----BEGIN CERTIFICATE-----
MIID6TCCAtGgAwIBAgIEEAAA1DANBgkqhkiG9w0BAQsFADBEMQswCQYDVQQGEwJE
RTEPMA0GA1UECAwGSGVzc2VuMRQwEgYDVQQKDAtwcml2YWN5aWRlYTEOMAwGA1UE
AwwFQ0EwMDEwHhcNMjIxMDE5MTUxOTU3WhcNMjMxMDE5MTUxOTU3WjAXMRUwEwYD
VQQDDAxjbj1jb3JuZWxpdXMwggEiMA0GCSqGSIb3DQEBAQUAA4IBDwAwggEKAoIB
AQDOpDkwJXPkneY3O4VZg++jbvmDufdIsAvV6AVAYc3FWrwRL1tO0E+40Oh/Baut
JAuQ1D9g7BW2Tr6O2Sar8i9/NcKmobxSOtmI+7P6cSC5UQ74rw0Wvr1duasw1axr
PLzuKEpPb9QJFfeYr3fbNhUuHu4P0Nlgrdu5xD/GJTL54+lQuOyEoMTSnP3OJYCF
fjqtTKdAGwpYGJ/CXjbh0UTpRrbctCii7O0C9yV54YaOaWdS7oIht4QtzOeoOVd9
ox7pUGN3Kavkpf/c7kxLXggrYggtdbgmbJPr9UXqzYNYUxVG5mtDwS/ZiEs91f0M
/1FS7VT7Jy1Z70xQznHN61qZAgMBAAGjggEOMIIBCjALBgNVHQ8EBAMCBaAwCQYD
VR0TBAIwADARBglghkgBhvhCAQEEBAMCBkAwMwYJYIZIAYb4QgENBCYWJE9wZW5T
U0wgR2VuZXJhdGVkIFNlcnZlciBDZXJ0aWZpY2F0ZTAdBgNVHQ4EFgQUDtW6Tn2S
VxX9YU40W+li0CAcfQgwdAYDVR0jBG0wa4AU9KfAzJFGr2TzkfIn+Miyb4qHMnOh
SKRGMEQxCzAJBgNVBAYTAkRFMQ8wDQYDVQQIDAZIZXNzZW4xFDASBgNVBAoMC3By
aXZhY3lpZGVhMQ4wDAYDVQQDDAVDQTAwMYIJAPvI66yDzRIHMBMGA1UdJQQMMAoG
CCsGAQUFBwMBMA0GCSqGSIb3DQEBCwUAA4IBAQB6evzx8Lqsx4e3t6px5lcH6TDf
8YsZEjSR/BERubWCn0CJr2r4avmZ03YBwGacefyM8tSCUu/iLoUXK3tud5oK7PWR
DQwAuBisFvxOnBgmjTFbaI5fmGtum0UZEgwWfF2GXSS8EQGXr5EFzt7vpxxCyAlJ
cMY4eFe8lgG6HBpz2bEXMGN0m8zz0P6mPtfQ+JA233GW/+eDB0yJbkyqy0H0ntaE
NhzdU50FfX2QQCCTsD73ZLmWy7aEk4eH6FpkTOVOQHEX75hVM0L19Osl4kf7L+Ze
qqSxrqA9OVrlW2nKA9fdtLQWv8AOG39D5+oOskVm9pn1XYTEPw2HcOz7Rn2B
-----END CERTIFICATE-----
