Certificate:
    Data:
        Version: 3 (0x2)
        Serial Number: 268435669 (0x100000d5)
        Signature Algorithm: sha256WithRSAEncryption
        Issuer: C=DE, ST=Hessen, O=privacyidea, CN=CA001
        Validity
            Not Before: Oct 19 15:19:57 2022 GMT
            Not After : Oct 19 15:19:57 2023 GMT
        Subject: OU=realm1, CN=cornelius/emailAddress=user@localhost.localdomain
        Subject Public Key Info:
            Public Key Algorithm: rsaEncryption
                RSA Public-Key: (2048 bit)
                Modulus:
                    00:ee:d1:db:9e:ac:14:3e:9e:76:95:26:28:67:37:
                    85:4a:0e:03:25:36:94:4c:17:47:84:b5:bd:be:7f:
                    0d:46:3c:e9:fd:3a:49:10:cf:ec:98:31:c6:ca:dc:
                    b6:3e:75:a9:44:b5:90:7a:a7:0c:3e:7f:21:50:8f:
                    e0:0e:c8:26:f2:a7:a4:d6:c8:e3:22:e8:d7:2c:67:
                    4c:d4:e8:ba:a5:ee:6f:e1:07:52:f3:6b:cf:d2:c8:
                    10:c2:18:a2:de:40:cd:3e:45:5c:eb:0d:30:2d:ac:
                    27:ae:d4:db:d0:d8:3c:6d:f8:80:70:71:b5:1f:db:
                    be:05:f7:90:65:32:33:c0:17:ed:8a:fb:b8:91:69:
                    1e:45:ba:fc:23:30:b0:af:68:2a:e2:bf:12:7d:22:
                    8e:5d:92:ed:fc:b0:25:d0:60:3f:56:d0:8c:7a:96:
                    35:68:85:cc:99:3f:d4:28:10:c7:1a:e2:c0:fd:99:
                    f8:ee:13:ea:41:ec:bc:40:4b:84:2d:25:4a:5b:01:
                    cb:25:33:db:28:0a:3b:44:dc:ad:d7:11:3b:f7:16:
                    5c:7e:40:4a:9b:1b:83:21:cf:df:f7:7d:aa:be:45:
                    75:d1:08:46:1d:06:76:64:ff:4e:67:9a:cc:d5:7a:
                    8c:cd:6a:02:51:3e:4e:52:05:5b:b7:1a:5d:77:3c:
                    06:23
                Exponent: 65537 (0x10001)
        X509v3 extensions:
            X509v3 Key Usage: 
                Digital Signature, Key Encipherment
            X509v3 Basic Constraints: 
                CA:FALSE
            Netscape Cert Type: 
                SSL Server
            Netscape Comment: 
                OpenSSL Generated Server Certificate
            X509v3 Subject Key Identifier: 
                CE:77:B9:44:56:E1:C0:8B:46:37:86:C6:E1:A0:20:DF:CF:89:E9:CB
            X509v3 Authority Key Identifier: 
                keyid:F4:A7:C0:CC:91:46:AF:64:F3:91:F2:27:F8:C8:B2:6F:8A:87:32:73
                DirName:/C=DE/ST=Hessen/O=privacyidea/CN=CA001
                serial:FB:C8:EB:AC:83:CD:12:07

            X509v3 Extended Key Usage: 
                TLS Web Server Authentication
    Signature Algorithm: sha256WithRSAEncryption
         b4:26:64:52:6f:60:34:ba:ab:a1:8c:2e:a9:a9:da:d1:12:2d:
         b2:b7:1b:2d:ed:ee:3e:ed:1e:85:7a:bb:d3:7d:a3:5c:fd:52:
         a2:57:ac:58:e8:57:b1:4b:47:18:bd:a6:dc:5a:79:24:c2:80:
         78:49:51:b3:59:03:1c:b9:99:e5:8b:c0:f1:89:75:20:1a:1d:
         87:71:94:3e:05:77:68:c5:86:27:99:fd:b9:c5:1a:04:db:32:
         02:4c:35:22:e1:2c:9c:90:56:d4:3e:f7:3d:f4:90:ac:1b:02:
         dc:98:75:6b:9f:58:ed:b6:60:5d:99:1b:ed:ab:9b:89:b4:6a:
         bf:fe:1e:87:a8:c6:28:d2:d4:af:b9:66:d1:36:43:a6:06:f4:
         63:01:15:8a:45:42:cd:d4:98:7b:ce:20:17:d1:14:4f:95:79:
         21:50:ee:7b:2e:64:d0:d0:63:db:43:f8:ea:3a:2f:01:b2:5e:
         00:34:5f:5d:b9:9f:bd:64:d7:f0:ac:fc:53:29:bf:87:8a:a6:
         3a:20:34:8c:4a:60:f3:86:59:98:b2:05:2f:02:c0:c6:36:aa:
         fd:5a:02:01:27:7c:80:fb:e4:a3:b4:3b:ea:6d:02:2f:f4:af:
         b7:9a:84:84:66:4c:c3:25:f5:ef:cf:a0:c5:eb:19:28:c2:ce:
         65:83:7c:f3
-----BEGIN CERTIFICATE-----
MIIEIjCCAwqgAwIBAgIEEAAA1TANBgkqhkiG9w0BAQsFADBEMQswCQYDVQQGEwJE
RTEPMA0GA1UECAwGSGVzc2VuMRQwEgYDVQQKDAtwcml2YWN5aWRlYTEOMAwGA1UE
AwwFQ0EwMDEwHhcNMjIxMDE5MTUxOTU3WhcNMjMxMDE5MTUxOTU3WjBQMQ8wDQYD
VQQLDAZyZWFsbTExEjAQBgNVBAMMCWNvcm5lbGl1czEpMCcGCSqGSIb3DQEJARYa
dXNlckBsb2NhbGhvc3QubG9jYWxkb21haW4wggEiMA0GCSqGSIb3DQEBAQUAA4IB
DwAwggEKAoIBAQDu0duerBQ+nnaVJihnN4VKDgMlNpRMF0eEtb2+fw1GPOn9OkkQ
z+yYMcbK3LY+dalEtZB6pww+fyFQj+AOyCbyp6TWyOMi6NcsZ0zU6Lql7m/hB1Lz
a8/SyBDCGKLeQM0+RVzrDTAtrCeu1NvQ2Dxt+IBwcbUf274F95BlMjPAF+2K+7iR
aR5FuvwjMLCvaCrivxJ9Io5dku38sCXQYD9W0Ix6ljVohcyZP9QoEMca4sD9mfju
E+pB7LxAS4QtJUpbAcslM9soCjtE3K3XETv3Flx+QEqbG4Mhz9/3faq+RXXRCEYd
BnZk/05nmszVeozNagJRPk5SBVu3Gl13PAYjAgMBAAGjggEOMIIBCjALBgNVHQ8E
BAMCBaAwCQYDVR0TBAIwADARBglghkgBhvhCAQEEBAMCBkAwMwYJYIZIAYb4QgEN
BCYWJE9wZW5TU0wgR2VuZXJhdGVkIFNlcnZlciBDZXJ0aWZpY2F0ZTAdBgNVHQ4E
FgQUzne5RFbhwItGN4bG4aAg38+J6cswdAYDVR0jBG0wa4AU9KfAzJFGr2TzkfIn
+Miyb4qHMnOhSKRGMEQxCzAJBgNVBAYTAkRFMQ8wDQYDVQQIDAZIZXNzZW4xFDAS
BgNVBAoMC3ByaXZhY3lpZGVhMQ4wDAYDVQQDDAVDQTAwMYIJAPvI66yDzRIHMBMG
A1UdJQQMMAoGCCsGAQUFBwMBMA0GCSqGSIb3DQEBCwUAA4IBAQC0JmRSb2A0uquh
jC6pqdrREi2ytxst7e4+7R6FervTfaNc/VKiV6xY6FexS0cYvabcWnkkwoB4SVGz
WQMcuZnli8DxiXUgGh2HcZQ+BXdoxYYnmf25xRoE2zICTDUi4SyckFbUPvc99JCs
GwLcmHVrn1jttmBdmRvtq5uJtGq//h6HqMYo0tSvuWbRNkOmBvRjARWKRULN1Jh7
ziAX0RRPlXkhUO57LmTQ0GPbQ/jqOi8Bsl4ANF9duZ+9ZNfwrPxTKb+HiqY6IDSM
SmDzhlmYsgUvAsDGNqr9WgIBJ3yA++SjtDvqbQIv9K+3moSEZkzDJfXvz6DF6xko
ws5lg3zz
-----END CERTIFICATE-----
